(dp0
I0
S'b-movie'
p1
sI1
S'airplane'
p2
sI2
S'shotgun'
p3
sI3
S'archive-footage'
p4
sI4
S'tough-guy'
p5
sI5
S'quick-draw'
p6
sI6
S'violence'
p7
sI7
S'murder'
p8
sI8
S'surprise-ending'
p9
sI9
S'adultery'
p10
sI10
S'prison-escape'
p11
sI11
S'father-son-relationship'
p12
sI12
S'espionage'
p13
sI13
S'1950s'
p14
sI14
S'graveyard'
p15
sI15
S'1920s'
p16
sI16
S'gun'
p17
sI17
S'independent-film'
p18
sI18
S'beautiful-woman'
p19
sI19
S'henchman'
p20
sI20
S'jewish'
p21
sI21
S'chase'
p22
sI22
S'evil-man'
p23
sI23
S'corpse'
p24
sI24
S'sword-fight'
p25
sI25
S'explosion'
p26
sI26
S'one-last-job'
p27
sI27
S'doll'
p28
sI28
S'sniper'
p29
sI29
S'ape-man'
p30
sI30
S'muscleman'
p31
sI31
S'cigarette-smoking'
p32
sI32
S'world-war-two'
p33
sI33
S'cease-fire'
p34
sI34
S'fist-fight'
p35
sI35
S'nurse'
p36
sI36
S'rescue'
p37
sI37
S'fight'
p38
sI38
S'ambassador'
p39
sI39
S'expedition'
p40
sI40
S'underwater'
p41
sI41
S'tunnel'
p42
sI42
S'die-hard-scenario'
p43
sI43
S'repeating-rifle'
p44
sI44
S'cafe'
p45
sI45
S'redneck'
p46
sI46
S'guitar'
p47
sI47
S'psychotic'
p48
sI48
S'criminal'
p49
sI49
S'female-nudity'
p50
sI50
S'held-at-gunpoint'
p51
sI51
S'arrow'
p52
sI52
S'police'
p53
sI53
S'dog'
p54
sI54
S'blood'
p55
sI55
S'mind-control'
p56
sI56
S'warrior'
p57
sI57
S'croupier'
p58
sI58
S'stock-footage'
p59
sI59
S'flash-forward'
p60
sI60
S'new-york-city'
p61
sI61
S'rapier'
p62
sI62
S'masked-hero'
p63
sI63
S'bank'
p64
sI64
S'superstition'
p65
sI65
S'howling'
p66
sI66
S'topless-female-nudity'
p67
sI67
S'disaster-film'
p68
sI68
S'rocket'
p69
sI69
S'teacher'
p70
sI70
S'character-name-in-title'
p71
sI71
S'bullwhip'
p72
sI72
S'junkyard'
p73
sI73
S'shootout'
p74
sI74
S'apartment'
p75
sI75
S'spear'
p76
sI76
S'police-detective'
p77
sI77
S'business-competition'
p78
sI78
S'robot-vs.-robot'
p79
sI79
S'horse'
p80
sI80
S'battlefield'
p81
sI81
S'speaking-spanish'
p82
sI82
S'brother-sister-relationship'
p83
sI83
S'death'
p84
sI84
S'car-accident'
p85
sI85
S'bare-chested-male-fighting'
p86
sI86
S'part-of-trilogy'
p87
sI87
S'fiddle'
p88
sI88
S'oppression'
p89
sI89
S'father-daughter-relationship'
p90
sI90
S'camera'
p91
sI91
S'desire'
p92
sI92
S'song'
p93
sI93
S"bird's-eye-shot"
p94
sI94
S'title-spoken-by-character'
p95
sI95
S'ranch-foreman'
p96
sI96
S'diving-bell'
p97
sI97
S'terrorism'
p98
sI98
S'sex'
p99
sI99
S'bullet-proof-vest'
p100
sI100
S'arab'
p101
sI101
S'claustrophobia'
p102
sI102
S'male-female-relationship'
p103
sI103
S'western-band'
p104
sI104
S'helicopter'
p105
sI105
S'based-on-tv-series'
p106
sI106
S'music-score-composed-by-director'
p107
sI107
S'englishman'
p108
sI108
S'space'
p109
sI109
S'damsel-in-distress'
p110
sI110
S'poverty-row-film'
p111
sI111
S'rape'
p112
sI112
S'beating'
p113
sI113
S'forgery'
p114
sI114
S'ghost-town'
p115
sI115
S'intimidation'
p116
sI116
S'swordsman'
p117
sI117
S'superspy'
p118
sI118
S'sheriff'
p119
sI119
S'usa'
p120
sI120
S'kidnapping'
p121
sI121
S'jungle'
p122
sI122
S'prison'
p123
sI123
S'katana-sword'
p124
sI124
S'voyeur'
p125
sI125
S'revenge'
p126
sI126
S'family-relationships'
p127
sI127
S'stock'
p128
sI128
S'los-angeles-california'
p129
sI129
S'race-against-time'
p130
sI130
S'astrology'
p131
sI131
S'commando'
p132
sI132
S'action-hero'
p133
sI133
S'false-accusation'
p134
sI134
S'rancher'
p135
sI135
S'decree'
p136
sI136
S'jackal'
p137
sI137
S'egg'
p138
sI138
S'white-power'
p139
sI139
S'actor-director'
p140
sI140
S'dream-lover'
p141
sI141
S'low-budget-film'
p142
sI142
S'police-officer'
p143
sI143
S'american'
p144
sI144
S'mechanic'
p145
sI145
S'love-interest'
p146
sI146
S'wrestler'
p147
sI147
S'avant-garde'
p148
sI148
S'covered-wagon'
p149
sI149
S'feud'
p150
sI150
S'cult-favorite'
p151
sI151
S'hand-to-hand-combat'
p152
sI152
S'superhero'
p153
sI153
S'gene-manipulation'
p154
sI154
S'pilot'
p155
sI155
S'hostage'
p156
sI156
S'dart'
p157
sI157
S'arrest'
p158
sI158
S'bare-chested-male'
p159
sI159
S'runaway'
p160
sI160
S'bra-less'
p161
sI161
S'convicted-felon'
p162
sI162
S'mutant'
p163
sI163
S'shot-in-the-leg'
p164
sI164
S'subway-station'
p165
sI165
S'extortion'
p166
sI166
S'desert'
p167
sI167
S'wanted-man'
p168
sI168
S'judge'
p169
sI169
S'spy'
p170
sI170
S'mafia'
p171
sI171
S'steer'
p172
sI172
S'gold-shipment'
p173
sI173
S'school-principal'
p174
sI174
S'tow-truck'
p175
sI175
S'volkswagen-beetle'
p176
sI176
S'characters-killed-one-by-one'
p177
sI177
S'voluptuous'
p178
sI178
S'bomb'
p179
sI179
S'deception'
p180
sI180
S'pistol'
p181
sI181
S'death-of-husband'
p182
sI182
S'machine-gun'
p183
sI183
S'fire'
p184
sI184
S'bar'
p185
sI185
S'1870s'
p186
sI186
S'carnival'
p187
sI187
S'flashback'
p188
sI188
S'roulette-wheel'
p189
sI189
S'hired-killer'
p190
sI190
S'one-against-others'
p191
sI191
S'charleston-south-carolina'
p192
sI192
S'commando-mission'
p193
sI193
S'fiddler'
p194
sI194
S'ski-mask'
p195
sI195
S'robbery'
p196
sI196
S'missouri'
p197
sI197
S'map'
p198
sI198
S'secret-plan'
p199
sI199
S'jewel-theft'
p200
sI200
S'research'
p201
sI201
S'blood-donor'
p202
sI202
S'spacecraft'
p203
sI203
S'spoof'
p204
s.