(dp0
I0
(lp1
I69
aI102
aI126
aI186
asI1
(lp2
I17
aI139
aI140
aI177
asI2
(lp3
I2
aI4
aI5
aI6
aI8
aI9
aI10
aI14
aI20
aI21
aI22
aI23
aI24
aI25
aI26
aI27
aI28
aI30
aI34
aI37
aI42
aI43
aI45
aI47
aI49
aI51
aI52
aI54
aI55
aI56
aI59
aI61
aI66
aI68
aI72
aI73
aI75
aI76
aI78
aI80
aI81
aI84
aI85
aI86
aI88
aI91
aI94
aI97
aI98
aI99
aI101
aI104
aI105
aI106
aI108
aI111
aI112
aI116
aI117
aI122
aI123
aI124
aI125
aI128
aI129
aI130
aI131
aI132
aI136
aI137
aI138
aI145
aI146
aI147
aI150
aI151
aI152
aI153
aI156
aI158
aI160
aI161
aI162
aI163
aI164
aI170
aI174
aI175
aI176
aI178
aI180
aI182
aI184
aI187
aI189
aI192
aI194
aI202
aI203
asI3
(lp4
I7
aI16
aI29
aI33
aI48
aI74
aI83
aI142
aI201
asI4
(lp5
I0
aI3
aI11
aI13
aI15
aI19
aI31
aI36
aI44
aI46
aI50
aI57
aI58
aI60
aI63
aI64
aI71
aI77
aI79
aI82
aI87
aI89
aI92
aI95
aI103
aI109
aI110
aI113
aI114
aI115
aI118
aI119
aI127
aI133
aI134
aI141
aI148
aI149
aI157
aI159
aI165
aI167
aI168
aI171
aI172
aI173
aI179
aI181
aI185
aI188
aI195
aI196
asI5
(lp6
I120
aI155
aI166
asI6
(lp7
I1
aI12
aI18
aI32
aI35
aI38
aI39
aI40
aI41
aI53
aI62
aI65
aI67
aI70
aI90
aI93
aI96
aI100
aI107
aI121
aI135
aI143
aI144
aI154
aI169
aI183
aI190
aI191
aI193
aI197
aI198
aI199
aI200
as.