(dp0
I0
F0.4033970276008493
sI1
F0.06334041047416844
sI2
F0.07820240622788394
sI3
F0.16914366595895258
sI4
F0.14897381457891012
sI5
F0.029723991507430998
sI6
F0.31387119603680114
sI7
F0.38181174805378626
sI8
F0.06157112526539278
sI9
F0.013092710544939844
sI10
F0.017692852087756547
sI11
F0.11641896673743808
sI12
F0.01840056617126681
sI13
F0.02335456475583864
sI14
F0.006369426751592357
sI15
F0.016985138004246284
sI16
F0.14932767162066526
sI17
F0.39313517338995047
sI18
F0.3326256192498231
sI19
F0.3361641896673744
sI20
F0.003538570417551309
sI21
F0.21302193913658882
sI22
F0.04847841472045294
sI23
F0.029723991507430998
sI24
F0.05697098372257608
sI25
F0.17338995046001415
sI26
F0.004246284501061571
sI27
F0.0031847133757961785
sI28
F0.025477707006369428
sI29
F0.0021231422505307855
sI30
F0.006015569709837226
sI31
F0.24982307147912244
sI32
F0.04600141542816702
sI33
F0.0007077140835102619
sI34
F0.15817409766454352
sI35
F0.03184713375796178
sI36
F0.17055909412597312
sI37
F0.11358811040339703
sI38
F0.00389242745930644
sI39
F0.010969568294409059
sI40
F0.009907997169143666
sI41
F0.020523708421797595
sI42
F0.012384996461429583
sI43
F0.01910828025477707
sI44
F0.029723991507430998
sI45
F0.0074309978768577496
sI46
F0.04953998584571833
sI47
F0.0046001415428167025
sI48
F0.04529370134465676
sI49
F0.11004953998584571
sI50
F0.3354564755838641
sI51
F0.0046001415428167025
sI52
F0.14260438782731777
sI53
F0.054140127388535034
sI54
F0.12986553432413306
sI55
F0.006369426751592357
sI56
F0.07643312101910828
sI57
F0.004953998584571833
sI58
F0.26928520877565465
sI59
F0.0024769992922859165
sI60
F0.07961783439490445
sI61
F0.007077140835102618
sI62
F0.008846426043878274
sI63
F0.03113941967445152
sI64
F0.0074309978768577496
sI65
F0.0007077140835102619
sI66
F0.03078556263269639
sI67
F0.006369426751592357
sI68
F0.006723283793347488
sI69
F0.013092710544939844
sI70
F0.15286624203821655
sI71
F0.005661712668082095
sI72
F0.0046001415428167025
sI73
F0.21868365180467092
sI74
F0.022292993630573247
sI75
F0.026185421089879687
sI76
F0.02689313517338995
sI77
F0.003538570417551309
sI78
F0.0021231422505307855
sI79
F0.10686482661004953
sI80
F0.03078556263269639
sI81
F0.0024769992922859165
sI82
F0.07820240622788394
sI83
F0.1397735314932767
sI84
F0.024062278839348902
sI85
F0.004246284501061571
sI86
F0.010969568294409059
sI87
F0.014154281670205236
sI88
F0.004246284501061571
sI89
F0.1624203821656051
sI90
F0.009554140127388535
sI91
F0.0024769992922859165
sI92
F0.13800424628450106
sI93
F0.0010615711252653928
sI94
F0.05024769992922859
sI95
F0.032200990799716916
sI96
F0.0014154281670205238
sI97
F0.03680113234253362
sI98
F0.06829440905874026
sI99
F0.0031847133757961785
sI100
F0.010261854210898797
sI101
F0.0024769992922859165
sI102
F0.22576079263977353
sI103
F0.018046709129511677
sI104
F0.08987968860580325
sI105
F0.010969568294409059
sI106
F0.0017692852087756545
sI107
F0.01627742392073602
sI108
F0.0021231422505307855
sI109
F0.173036093418259
sI110
F0.15074309978768577
sI111
F0.03397027600849257
sI112
F0.058386411889596604
sI113
F0.009200283085633405
sI114
F0.00813871196036801
sI115
F0.0074309978768577496
sI116
F0.016631280962491155
sI117
F0.0007077140835102619
sI118
F0.17940552016985137
sI119
F0.1751592356687898
sI120
F0.11075725406935598
sI121
F0.04210898796886058
sI122
F0.06510969568294409
sI123
F0.016631280962491155
sI124
F0.005661712668082095
sI125
F0.1588818117480538
sI126
F0.03573956121726822
sI127
F0.0007077140835102619
sI128
F0.05449398443029016
sI129
F0.010615711252653927
sI130
F0.0007077140835102619
sI131
F0.01592356687898089
sI132
F0.1387119603680113
sI133
F0.08315640481245577
sI134
F0.10828025477707007
sI135
F0.00035385704175513094
sI136
F0.0007077140835102619
sI137
F0.0028308563340410475
sI138
F0.0017692852087756545
sI139
F0.00035385704175513094
sI140
F0.00035385704175513094
sI141
F0.25760792639773533
sI142
F0.09341825902335456
sI143
F0.03857041755130927
sI144
F0.018046709129511677
sI145
F0.03750884642604388
sI146
F0.006015569709837226
sI147
F0.0007077140835102619
sI148
F0.012031139419674451
sI149
F0.0074309978768577496
sI150
F0.14826610049539987
sI151
F0.18152866242038215
sI152
F0.021939136588818117
sI153
F0.0014154281670205238
sI154
F0.04069355980184006
sI155
F0.08315640481245577
sI156
F0.0010615711252653928
sI157
F0.05449398443029016
sI158
F0.07006369426751592
sI159
F0.013092710544939844
sI160
F0.0031847133757961785
sI161
F0.005307855626326964
sI162
F0.00813871196036801
sI163
F0.020523708421797595
sI164
F0.003538570417551309
sI165
F0.030077848549186128
sI166
F0.07395612172682237
sI167
F0.01132342533616419
sI168
F0.05874026893135174
sI169
F0.0629865534324133
sI170
F0.026185421089879687
sI171
F0.0007077140835102619
sI172
F0.009907997169143666
sI173
F0.0014154281670205238
sI174
F0.0031847133757961785
sI175
F0.0021231422505307855
sI176
F0.0010615711252653928
sI177
F0.004953998584571833
sI178
F0.03821656050955414
sI179
F0.26008492569002123
sI180
F0.18506723283793347
sI181
F0.012738853503184714
sI182
F0.13198867657466384
sI183
F0.07006369426751592
sI184
F0.04847841472045294
sI185
F0.024416135881104035
sI186
F0.00778485491861288
sI187
F0.05626326963906582
sI188
F0.0031847133757961785
sI189
F0.009554140127388535
sI190
F0.0010615711252653928
sI191
F0.0007077140835102619
sI192
F0.013446567586694975
sI193
F0.0007077140835102619
sI194
F0.006015569709837226
sI195
F0.10934182590233546
sI196
F0.010615711252653927
sI197
F0.01840056617126681
sI198
F0.0031847133757961785
sI199
F0.0031847133757961785
sI200
F0.0017692852087756545
sI201
F0.0007077140835102619
sI202
F0.013446567586694975
sI203
F0.01875442321302194
s.